target datalayout = "e-m:e-p270:32:32-p271:32:32-p272:64:64-i64:64-i128:128-f80:128-n8:16:32:64-S128"
target triple = "x86_64-pc-linux-gnu"

; Function Attrs: nounwind uwtable
define dso_local i32 @uv_os_getenv(ptr noundef %0, ptr noundef %1, ptr noundef %2) #0 {
  %4 = alloca i32, align 4
  %5 = alloca ptr, align 8
  %6 = alloca ptr, align 8
  %7 = alloca ptr, align 8
  %8 = alloca ptr, align 8
  %9 = alloca i64, align 8
  %10 = alloca i32, align 4
  store ptr %0, ptr %5, align 8
  store ptr %1, ptr %6, align 8
  store ptr %2, ptr %7, align 8
  call void @llvm.lifetime.start.p0(i64 8, ptr %8) #11
  call void @llvm.lifetime.start.p0(i64 8, ptr %9) #11
  %11 = load ptr, ptr %5, align 8
  %12 = icmp eq ptr %11, null
  br i1 %12, label %23, label %13

13:                                               ; preds = %3
  %14 = load ptr, ptr %6, align 8
  %15 = icmp eq ptr %14, null
  br i1 %15, label %23, label %16

16:                                               ; preds = %13
  %17 = load ptr, ptr %7, align 8
  %18 = icmp eq ptr %17, null
  br i1 %18, label %23, label %19

19:                                               ; preds = %16
  %20 = load ptr, ptr %7, align 8
  %21 = load i64, ptr %20, align 8
  %22 = icmp eq i64 %21, 0
  br i1 %22, label %23, label %24

23:                                               ; preds = %19, %16, %13, %3
  store i32 -22, ptr %4, align 4
  store i32 1, ptr %10, align 4
  br label %48

24:                                               ; preds = %19
  %25 = load ptr, ptr %5, align 8
  %26 = call ptr @getenv(ptr noundef %25) #11
  store ptr %26, ptr %8, align 8
  %27 = load ptr, ptr %8, align 8
  %28 = icmp eq ptr %27, null
  br i1 %28, label %29, label %30

29:                                               ; preds = %24
  store i32 -2, ptr %4, align 4
  store i32 1, ptr %10, align 4
  br label %48

30:                                               ; preds = %24
  %31 = load ptr, ptr %8, align 8
  %32 = call i64 @strlen(ptr noundef %31) #13
  store i64 %32, ptr %9, align 8
  %33 = load i64, ptr %9, align 8
  %34 = load ptr, ptr %7, align 8
  %35 = load i64, ptr %34, align 8
  %36 = icmp uge i64 %33, %35
  br i1 %36, label %37, label %41

37:                                               ; preds = %30
  %38 = load i64, ptr %9, align 8
  %39 = add i64 %38, 1
  %40 = load ptr, ptr %7, align 8
  store i64 %39, ptr %40, align 8
  store i32 -105, ptr %4, align 4
  store i32 1, ptr %10, align 4
  br label %48

41:                                               ; preds = %30
  %42 = load ptr, ptr %6, align 8
  %43 = load ptr, ptr %8, align 8
  %44 = load i64, ptr %9, align 8
  %45 = add i64 %44, 1
  call void @llvm.memcpy.p0.p0.i64(ptr align 1 %42, ptr align 1 %43, i64 %45, i1 false)
  %46 = load i64, ptr %9, align 8
  %47 = load ptr, ptr %7, align 8
  store i64 %46, ptr %47, align 8
  store i32 0, ptr %4, align 4
  store i32 1, ptr %10, align 4
  br label %48

48:                                               ; preds = %41, %37, %29, %23
  call void @llvm.lifetime.end.p0(i64 8, ptr %9) #11
  call void @llvm.lifetime.end.p0(i64 8, ptr %8) #11
  %49 = load i32, ptr %4, align 4
  ret i32 %49
}