; Function Attrs: nofree nounwind memory(readwrite, inaccessiblemem: read) uwtable
define dso_local range(i32 -105, 1) i32 @uv_os_getenv(ptr noundef readonly captures(address_is_null) %0, ptr noundef writeonly captures(address_is_null) %1, ptr noundef captures(address_is_null) %2) local_unnamed_addr #17 {
  %4 = icmp eq ptr %0, null
  %5 = icmp eq ptr %1, null
  %or.cond = or i1 %4, %5
  %6 = icmp eq ptr %2, null
  %or.cond3 = or i1 %or.cond, %6
  br i1 %or.cond3, label %17, label %7

7:                                                ; preds = %3
  %8 = load i64, ptr %2, align 8
  %9 = icmp eq i64 %8, 0
  br i1 %9, label %17, label %10

10:                                               ; preds = %7
  %11 = tail call ptr @getenv(ptr noundef nonnull %0) #23
  %12 = icmp eq ptr %11, null
  br i1 %12, label %17, label %13

13:                                               ; preds = %10
  %14 = tail call i64 @strlen(ptr noundef nonnull dereferenceable(1) %11) #25
  %.not = icmp ult i64 %14, %8
  %15 = add i64 %14, 1
  br i1 %.not, label %16, label %.sink.split

16:                                               ; preds = %13
  tail call void @llvm.memcpy.p0.p0.i64(ptr noundef nonnull align 1 dereferenceable(1) %1, ptr noundef nonnull align 1 dereferenceable(1) %11, i64 %15, i1 false)
  br label %.sink.split

.sink.split:                                      ; preds = %13, %16
  %.sink = phi i64 [ %14, %16 ], [ %15, %13 ]
  %.0.ph = phi i32 [ 0, %16 ], [ -105, %13 ]
  store i64 %.sink, ptr %2, align 8
  br label %17

17:                                               ; preds = %.sink.split, %10, %3, %7
  %.0 = phi i32 [ -22, %7 ], [ -22, %3 ], [ -2, %10 ], [ %.0.ph, %.sink.split ]
  ret i32 %.0
}